; Function Attrs: mustprogress nofree norecurse nosync nounwind willreturn memory(readwrite, inaccessiblemem: none) uwtable
define hidden noundef ptr @_PyType_GetBases(ptr noundef readonly captures(none) %0) local_unnamed_addr #6 {
  %2 = getelementptr i8, ptr %0, i64 336
  %.val = load ptr, ptr %2, align 8, !tbaa !109
  %3 = load i32, ptr %.val, align 8, !tbaa !102
  %4 = icmp slt i32 %3, 0
  br i1 %4, label %Py_INCREF.exit, label %5

5:                                                ; preds = %1
  %6 = add nuw i32 %3, 1
  store i32 %6, ptr %.val, align 8, !tbaa !102
  br label %Py_INCREF.exit

Py_INCREF.exit:                                   ; preds = %1, %5
  ret ptr %.val
}